; Listing generated by Microsoft (R) Optimizing Compiler Version 19.15.26726.0 

	TITLE	C:\Users\nebab\Downloads\Asm4Programs\Asm4Programs\switch4.c
	.686P
	.XMM
	include listing.inc
	.model	flat

INCLUDELIB LIBCMT
INCLUDELIB OLDNAMES

PUBLIC	_f
; Function compile flags: /Odtp
; File c:\users\nebab\downloads\asm4programs\asm4programs\switch4.c
_TEXT	SEGMENT
tv65 = -8						; size = 4
_x$ = -4						; size = 4
_i$ = 8							; size = 4
_f	PROC

; 2    : {

  00000	55		 push	 ebp
  00001	8b ec		 mov	 ebp, esp
  00003	83 ec 08	 sub	 esp, 8

; 3    :   int x;
; 4    : 
; 5    :   switch (i-3) {

  00006	8b 45 08	 mov	 eax, DWORD PTR _i$[ebp]
  00009	83 e8 03	 sub	 eax, 3
  0000c	89 45 f8	 mov	 DWORD PTR tv65[ebp], eax
  0000f	8b 4d f8	 mov	 ecx, DWORD PTR tv65[ebp]
  00012	83 c1 03	 add	 ecx, 3
  00015	89 4d f8	 mov	 DWORD PTR tv65[ebp], ecx
  00018	83 7d f8 68	 cmp	 DWORD PTR tv65[ebp], 104 ; 00000068H
  0001c	77 3e		 ja	 SHORT $LN9@f
  0001e	8b 55 f8	 mov	 edx, DWORD PTR tv65[ebp]
  00021	0f b6 82 00 00
	00 00		 movzx	 eax, BYTE PTR $LN11@f[edx]
  00028	ff 24 85 00 00
	00 00		 jmp	 DWORD PTR $LN12@f[eax*4]
$LN4@f:

; 6    :    case 8: x = 5; break;

  0002f	c7 45 fc 05 00
	00 00		 mov	 DWORD PTR _x$[ebp], 5
  00036	eb 2b		 jmp	 SHORT $LN1@f
$LN5@f:

; 7    :    case 3: x = 3; break;

  00038	c7 45 fc 03 00
	00 00		 mov	 DWORD PTR _x$[ebp], 3
  0003f	eb 22		 jmp	 SHORT $LN1@f
$LN6@f:

; 8    :    case 56: x = 12; break;

  00041	c7 45 fc 0c 00
	00 00		 mov	 DWORD PTR _x$[ebp], 12	; 0000000cH
  00048	eb 19		 jmp	 SHORT $LN1@f
$LN7@f:

; 9    :    case -3: x = 11; break;

  0004a	c7 45 fc 0b 00
	00 00		 mov	 DWORD PTR _x$[ebp], 11	; 0000000bH
  00051	eb 10		 jmp	 SHORT $LN1@f
$LN8@f:

; 10   :    case 101: x = 4;break;

  00053	c7 45 fc 04 00
	00 00		 mov	 DWORD PTR _x$[ebp], 4
  0005a	eb 07		 jmp	 SHORT $LN1@f
$LN9@f:

; 11   :    default: x = -1;

  0005c	c7 45 fc ff ff
	ff ff		 mov	 DWORD PTR _x$[ebp], -1
$LN1@f:

; 12   :   }
; 13   : }

  00063	8b e5		 mov	 esp, ebp
  00065	5d		 pop	 ebp
  00066	c3		 ret	 0
  00067	90		 npad	 1
$LN12@f:
  00068	00 00 00 00	 DD	 $LN7@f
  0006c	00 00 00 00	 DD	 $LN5@f
  00070	00 00 00 00	 DD	 $LN4@f
  00074	00 00 00 00	 DD	 $LN6@f
  00078	00 00 00 00	 DD	 $LN8@f
  0007c	00 00 00 00	 DD	 $LN9@f
$LN11@f:
  00080	00		 DB	 0
  00081	05		 DB	 5
  00082	05		 DB	 5
  00083	05		 DB	 5
  00084	05		 DB	 5
  00085	05		 DB	 5
  00086	01		 DB	 1
  00087	05		 DB	 5
  00088	05		 DB	 5
  00089	05		 DB	 5
  0008a	05		 DB	 5
  0008b	02		 DB	 2
  0008c	05		 DB	 5
  0008d	05		 DB	 5
  0008e	05		 DB	 5
  0008f	05		 DB	 5
  00090	05		 DB	 5
  00091	05		 DB	 5
  00092	05		 DB	 5
  00093	05		 DB	 5
  00094	05		 DB	 5
  00095	05		 DB	 5
  00096	05		 DB	 5
  00097	05		 DB	 5
  00098	05		 DB	 5
  00099	05		 DB	 5
  0009a	05		 DB	 5
  0009b	05		 DB	 5
  0009c	05		 DB	 5
  0009d	05		 DB	 5
  0009e	05		 DB	 5
  0009f	05		 DB	 5
  000a0	05		 DB	 5
  000a1	05		 DB	 5
  000a2	05		 DB	 5
  000a3	05		 DB	 5
  000a4	05		 DB	 5
  000a5	05		 DB	 5
  000a6	05		 DB	 5
  000a7	05		 DB	 5
  000a8	05		 DB	 5
  000a9	05		 DB	 5
  000aa	05		 DB	 5
  000ab	05		 DB	 5
  000ac	05		 DB	 5
  000ad	05		 DB	 5
  000ae	05		 DB	 5
  000af	05		 DB	 5
  000b0	05		 DB	 5
  000b1	05		 DB	 5
  000b2	05		 DB	 5
  000b3	05		 DB	 5
  000b4	05		 DB	 5
  000b5	05		 DB	 5
  000b6	05		 DB	 5
  000b7	05		 DB	 5
  000b8	05		 DB	 5
  000b9	05		 DB	 5
  000ba	05		 DB	 5
  000bb	03		 DB	 3
  000bc	05		 DB	 5
  000bd	05		 DB	 5
  000be	05		 DB	 5
  000bf	05		 DB	 5
  000c0	05		 DB	 5
  000c1	05		 DB	 5
  000c2	05		 DB	 5
  000c3	05		 DB	 5
  000c4	05		 DB	 5
  000c5	05		 DB	 5
  000c6	05		 DB	 5
  000c7	05		 DB	 5
  000c8	05		 DB	 5
  000c9	05		 DB	 5
  000ca	05		 DB	 5
  000cb	05		 DB	 5
  000cc	05		 DB	 5
  000cd	05		 DB	 5
  000ce	05		 DB	 5
  000cf	05		 DB	 5
  000d0	05		 DB	 5
  000d1	05		 DB	 5
  000d2	05		 DB	 5
  000d3	05		 DB	 5
  000d4	05		 DB	 5
  000d5	05		 DB	 5
  000d6	05		 DB	 5
  000d7	05		 DB	 5
  000d8	05		 DB	 5
  000d9	05		 DB	 5
  000da	05		 DB	 5
  000db	05		 DB	 5
  000dc	05		 DB	 5
  000dd	05		 DB	 5
  000de	05		 DB	 5
  000df	05		 DB	 5
  000e0	05		 DB	 5
  000e1	05		 DB	 5
  000e2	05		 DB	 5
  000e3	05		 DB	 5
  000e4	05		 DB	 5
  000e5	05		 DB	 5
  000e6	05		 DB	 5
  000e7	05		 DB	 5
  000e8	04		 DB	 4
_f	ENDP
_TEXT	ENDS
END
